target datalayout = "e-m:e-p270:32:32-p271:32:32-p272:64:64-i64:64-i128:128-f80:128-n8:16:32:64-S128"
target triple = "x86_64-pc-linux-gnu"

%struct.IDAMemRec = type { ptr, double, ptr, ptr, i32, double, double, ptr, i32, i32, ptr, ptr, i32, i32, i32, ptr, ptr, i32, i32, double, double, ptr, i32, i32, i32, i32, ptr, ptr, i32, ptr, ptr, ptr, i32, double, i32, i32, double, ptr, ptr, ptr, i32, ptr, ptr, i32, i32, i32, double, ptr, ptr, ptr, [6 x ptr], [6 x double], [6 x double], [6 x double], [6 x double], [6 x double], ptr, ptr, ptr, ptr, ptr, ptr, ptr, ptr, ptr, ptr, ptr, ptr, ptr, ptr, ptr, ptr, ptr, [6 x ptr], ptr, ptr, ptr, ptr, [6 x ptr], ptr, ptr, ptr, ptr, ptr, ptr, ptr, ptr, ptr, ptr, ptr, ptr, ptr, ptr, ptr, ptr, [6 x ptr], ptr, ptr, ptr, ptr, ptr, double, ptr, ptr, i32, i32, i32, i32, i32, i32, i32, i32, double, double, double, i32, double, i32, i32, i32, i32, i32, double, double, double, double, double, double, double, double, double, double, double, double, double, double, double, double, double, i32, i32, i32, i32, i64, double, double, double, double, double, double, double, double, double, i64, i64, i64, i64, i64, i64, i64, i64, i64, i64, i64, i64, i64, i64, i64, i64, i64, i64, i64, i64, i64, i64, i64, i64, i64, i64, double, i32, i32, i32, i32, i32, i32, i32, i32, i32, i32, i32, i32, i32, ptr, i32, ptr, i32, ptr, i32, ptr, ptr, ptr, ptr, ptr, ptr, i32, i32, ptr, ptr, ptr, ptr, ptr, ptr, ptr, double, i32, i32, ptr, i32, ptr, ptr, double, double, double, ptr, ptr, ptr, double, double, i32, i32, i64, ptr, i32, ptr, [5 x double], ptr, ptr, i32, ptr, i32 }

@.str = private unnamed_addr constant [114 x i8] c"generated/home/dtcxzyw/WorkSpace/Projects/compilers/llvm-opt-benchmark/bench/sundials/sundials/src/idas/idas_io.c\00", align 1
@.str.1 = private unnamed_addr constant [24 x i8] c"ida_mem = NULL illegal.\00", align 1
@.str.18 = private unnamed_addr constant [52 x i8] c"Illegal attempt to call before calling IDAQuadInit.\00", align 1
@__func__.IDAGetQuadStats = private unnamed_addr constant [16 x i8] c"IDAGetQuadStats\00", align 1

; Function Attrs: nounwind uwtable
define i32 @IDAGetQuadStats(ptr noundef %0, ptr noundef %1, ptr noundef %2) #0 {
  %4 = alloca i32, align 4
  %5 = alloca ptr, align 8
  %6 = alloca ptr, align 8
  %7 = alloca ptr, align 8
  %8 = alloca ptr, align 8
  store ptr %0, ptr %5, align 8
  store ptr %1, ptr %6, align 8
  store ptr %2, ptr %7, align 8
  %9 = load ptr, ptr %5, align 8
  %10 = icmp eq ptr %9, null
  br i1 %10, label %11, label %12

11:                                               ; preds = %3
  call void (ptr, i32, i32, ptr, ptr, ptr, ...) @IDAProcessError(ptr noundef null, i32 noundef -20, i32 noundef 1755, ptr noundef @__func__.IDAGetQuadStats, ptr noundef @.str, ptr noundef @.str.1)
  store i32 -20, ptr %4, align 4
  br label %29

12:                                               ; preds = %3
  %13 = load ptr, ptr %5, align 8
  store ptr %13, ptr %8, align 8
  %14 = load ptr, ptr %8, align 8
  %15 = getelementptr inbounds %struct.IDAMemRec, ptr %14, i32 0, i32 14
  %16 = load i32, ptr %15, align 8
  %17 = icmp eq i32 %16, 0
  br i1 %17, label %18, label %20

18:                                               ; preds = %12
  %19 = load ptr, ptr %8, align 8
  call void (ptr, i32, i32, ptr, ptr, ptr, ...) @IDAProcessError(ptr noundef %19, i32 noundef -30, i32 noundef 1763, ptr noundef @__func__.IDAGetQuadStats, ptr noundef @.str, ptr noundef @.str.18)
  store i32 -30, ptr %4, align 4
  br label %29

20:                                               ; preds = %12
  %21 = load ptr, ptr %8, align 8
  %22 = getelementptr inbounds %struct.IDAMemRec, ptr %21, i32 0, i32 155
  %23 = load i64, ptr %22, align 8
  %24 = load ptr, ptr %6, align 8
  store i64 %23, ptr %24, align 8
  %25 = load ptr, ptr %8, align 8
  %26 = getelementptr inbounds %struct.IDAMemRec, ptr %25, i32 0, i32 164
  %27 = load i64, ptr %26, align 8
  %28 = load ptr, ptr %7, align 8
  store i64 %27, ptr %28, align 8
  store i32 0, ptr %4, align 4
  br label %29

29:                                               ; preds = %20, %18, %11
  %30 = load i32, ptr %4, align 4
  ret i32 %30
}