; Function Attrs: nounwind uwtable
define range(i32 -30, 1) i32 @IDAGetQuadStats(ptr noundef %0, ptr noundef writeonly captures(none) %1, ptr noundef writeonly captures(none) %2) local_unnamed_addr #0 {
  %4 = icmp eq ptr %0, null
  br i1 %4, label %5, label %6

5:                                                ; preds = %3
  tail call void (ptr, i32, i32, ptr, ptr, ptr, ...) @IDAProcessError(ptr noundef null, i32 noundef -20, i32 noundef 1755, ptr noundef nonnull @__func__.IDAGetQuadStats, ptr noundef nonnull @.str, ptr noundef nonnull @.str.1) #9
  br label %16

6:                                                ; preds = %3
  %7 = getelementptr inbounds nuw i8, ptr %0, i64 96
  %8 = load i32, ptr %7, align 8
  %9 = icmp eq i32 %8, 0
  br i1 %9, label %10, label %11

10:                                               ; preds = %6
  tail call void (ptr, i32, i32, ptr, ptr, ptr, ...) @IDAProcessError(ptr noundef nonnull %0, i32 noundef -30, i32 noundef 1763, ptr noundef nonnull @__func__.IDAGetQuadStats, ptr noundef nonnull @.str, ptr noundef nonnull @.str.18) #9
  br label %16

11:                                               ; preds = %6
  %12 = getelementptr inbounds nuw i8, ptr %0, i64 1480
  %13 = load i64, ptr %12, align 8
  store i64 %13, ptr %1, align 8
  %14 = getelementptr inbounds nuw i8, ptr %0, i64 1552
  %15 = load i64, ptr %14, align 8
  store i64 %15, ptr %2, align 8
  br label %16

16:                                               ; preds = %11, %10, %5
  %.0 = phi i32 [ -20, %5 ], [ -30, %10 ], [ 0, %11 ]
  ret i32 %.0
}